target datalayout = "e-m:e-p270:32:32-p271:32:32-p272:64:64-i64:64-i128:128-f80:128-n8:16:32:64-S128"
target triple = "x86_64-pc-linux-gnu"

@pmi_version = internal global i32 0, align 4
@pmi_subversion = internal global i32 0, align 4

; Function Attrs: nounwind uwtable
define dso_local i32 @get_pmi_version(ptr noundef %0, ptr noundef %1) #0 {
  %3 = alloca i32, align 4
  %4 = alloca ptr, align 8
  %5 = alloca ptr, align 8
  store ptr %0, ptr %4, align 8
  store ptr %1, ptr %5, align 8
  %6 = load i32, ptr @pmi_version, align 4
  %7 = icmp ne i32 %6, 0
  br i1 %7, label %8, label %13

8:                                                ; preds = %2
  %9 = load i32, ptr @pmi_version, align 4
  %10 = load ptr, ptr %4, align 8
  store i32 %9, ptr %10, align 4
  %11 = load i32, ptr @pmi_subversion, align 4
  %12 = load ptr, ptr %5, align 8
  store i32 %11, ptr %12, align 4
  store i32 0, ptr %3, align 4
  br label %14

13:                                               ; preds = %2
  store i32 -1, ptr %3, align 4
  br label %14

14:                                               ; preds = %13, %8
  %15 = load i32, ptr %3, align 4
  ret i32 %15
}