; Function Attrs: mustprogress nofree norecurse nosync nounwind willreturn memory(read, argmem: write, inaccessiblemem: none) uwtable
define dso_local range(i32 -1, 1) i32 @get_pmi_version(ptr noundef writeonly captures(none) %0, ptr noundef writeonly captures(none) %1) local_unnamed_addr #1 {
  %3 = load i32, ptr @pmi_version, align 4
  %.not = icmp eq i32 %3, 0
  br i1 %.not, label %6, label %4

4:                                                ; preds = %2
  store i32 %3, ptr %0, align 4
  %5 = load i32, ptr @pmi_subversion, align 4
  store i32 %5, ptr %1, align 4
  br label %6

6:                                                ; preds = %2, %4
  %.0 = phi i32 [ 0, %4 ], [ -1, %2 ]
  ret i32 %.0
}